target datalayout = "e-m:e-p270:32:32-p271:32:32-p272:64:64-i64:64-i128:128-f80:128-n8:16:32:64-S128"
target triple = "x86_64-pc-linux-gnu"

%struct._lv_font_manager_t = type { %struct.lv_ll_t, %struct.lv_ll_t, %struct.lv_ll_t, ptr }
%struct.lv_ll_t = type { i32, ptr, ptr }
%struct._lv_font_path_t = type { ptr, ptr, i8 }

; Function Attrs: nounwind uwtable
define internal zeroext i1 @lv_font_manager_check_resource(ptr noundef %0) #0 {
  %2 = alloca ptr, align 8
  %3 = alloca ptr, align 8
  %4 = alloca i32, align 4
  %5 = alloca ptr, align 8
  %6 = alloca ptr, align 8
  %7 = alloca i32, align 4
  %8 = alloca ptr, align 8
  %9 = alloca i8, align 1
  store ptr %0, ptr %2, align 8, !tbaa !7
  br label %10

10:                                               ; preds = %1
  %11 = load ptr, ptr %2, align 8, !tbaa !7
  %12 = icmp ne ptr %11, null
  br i1 %12, label %17, label %13

13:                                               ; preds = %10
  br label %14

14:                                               ; preds = %13
  br label %15

15:                                               ; preds = %14
  br label %16

16:                                               ; preds = %15, %16
  br label %16

17:                                               ; preds = %10
  br label %18

18:                                               ; preds = %17
  call void @llvm.lifetime.start.p0(i64 8, ptr %3) #6
  %19 = load ptr, ptr %2, align 8, !tbaa !7
  %20 = getelementptr inbounds nuw %struct._lv_font_manager_t, ptr %19, i32 0, i32 1
  store ptr %20, ptr %3, align 8, !tbaa !7
  call void @llvm.lifetime.start.p0(i64 4, ptr %4) #6
  %21 = load ptr, ptr %3, align 8, !tbaa !7
  %22 = call i32 @lv_ll_get_len(ptr noundef %21)
  store i32 %22, ptr %4, align 4, !tbaa !3
  %23 = load i32, ptr %4, align 4, !tbaa !3
  %24 = icmp ne i32 %23, 0
  br i1 %24, label %25, label %43

25:                                               ; preds = %18
  br label %26

26:                                               ; preds = %25
  br label %27

27:                                               ; preds = %26
  br label %28

28:                                               ; preds = %27
  call void @llvm.lifetime.start.p0(i64 8, ptr %5) #6
  %29 = load ptr, ptr %3, align 8, !tbaa !7
  %30 = call ptr @lv_ll_get_head(ptr noundef %29)
  store ptr %30, ptr %5, align 8, !tbaa !7
  br label %31

31:                                               ; preds = %38, %28
  %32 = load ptr, ptr %5, align 8, !tbaa !7
  %33 = icmp ne ptr %32, null
  br i1 %33, label %34, label %42

34:                                               ; preds = %31
  br label %35

35:                                               ; preds = %34
  br label %36

36:                                               ; preds = %35
  br label %37

37:                                               ; preds = %36
  br label %38

38:                                               ; preds = %37
  %39 = load ptr, ptr %3, align 8, !tbaa !7
  %40 = load ptr, ptr %5, align 8, !tbaa !7
  %41 = call ptr @lv_ll_get_next(ptr noundef %39, ptr noundef %40)
  store ptr %41, ptr %5, align 8, !tbaa !7
  br label %31, !llvm.loop !21

42:                                               ; preds = %31
  call void @llvm.lifetime.end.p0(i64 8, ptr %5) #6
  br label %43

43:                                               ; preds = %42, %18
  call void @llvm.lifetime.start.p0(i64 8, ptr %6) #6
  %44 = load ptr, ptr %2, align 8, !tbaa !7
  %45 = getelementptr inbounds nuw %struct._lv_font_manager_t, ptr %44, i32 0, i32 0
  store ptr %45, ptr %6, align 8, !tbaa !7
  call void @llvm.lifetime.start.p0(i64 4, ptr %7) #6
  %46 = load ptr, ptr %6, align 8, !tbaa !7
  %47 = call i32 @lv_ll_get_len(ptr noundef %46)
  store i32 %47, ptr %7, align 4, !tbaa !3
  %48 = load i32, ptr %7, align 4, !tbaa !3
  %49 = icmp ne i32 %48, 0
  br i1 %49, label %50, label %68

50:                                               ; preds = %43
  br label %51

51:                                               ; preds = %50
  br label %52

52:                                               ; preds = %51
  br label %53

53:                                               ; preds = %52
  call void @llvm.lifetime.start.p0(i64 8, ptr %8) #6
  %54 = load ptr, ptr %6, align 8, !tbaa !7
  %55 = call ptr @lv_ll_get_head(ptr noundef %54)
  store ptr %55, ptr %8, align 8, !tbaa !7
  br label %56

56:                                               ; preds = %63, %53
  %57 = load ptr, ptr %8, align 8, !tbaa !7
  %58 = icmp ne ptr %57, null
  br i1 %58, label %59, label %67

59:                                               ; preds = %56
  br label %60

60:                                               ; preds = %59
  br label %61

61:                                               ; preds = %60
  br label %62

62:                                               ; preds = %61
  br label %63

63:                                               ; preds = %62
  %64 = load ptr, ptr %6, align 8, !tbaa !7
  %65 = load ptr, ptr %8, align 8, !tbaa !7
  %66 = call ptr @lv_ll_get_next(ptr noundef %64, ptr noundef %65)
  store ptr %66, ptr %8, align 8, !tbaa !7
  br label %56, !llvm.loop !22

67:                                               ; preds = %56
  call void @llvm.lifetime.end.p0(i64 8, ptr %8) #6
  br label %68

68:                                               ; preds = %67, %43
  call void @llvm.lifetime.start.p0(i64 1, ptr %9) #6
  %69 = load i32, ptr %4, align 4, !tbaa !3
  %70 = icmp ne i32 %69, 0
  br i1 %70, label %74, label %71

71:                                               ; preds = %68
  %72 = load i32, ptr %7, align 4, !tbaa !3
  %73 = icmp ne i32 %72, 0
  br label %74

74:                                               ; preds = %71, %68
  %75 = phi i1 [ true, %68 ], [ %73, %71 ]
  %76 = zext i1 %75 to i8
  store i8 %76, ptr %9, align 1, !tbaa !23
  %77 = load i8, ptr %9, align 1, !tbaa !23, !range !15, !noundef !16
  %78 = trunc i8 %77 to i1
  call void @llvm.lifetime.end.p0(i64 1, ptr %9) #6
  call void @llvm.lifetime.end.p0(i64 4, ptr %7) #6
  call void @llvm.lifetime.end.p0(i64 8, ptr %6) #6
  call void @llvm.lifetime.end.p0(i64 4, ptr %4) #6
  call void @llvm.lifetime.end.p0(i64 8, ptr %3) #6
  ret i1 %78
}

; Function Attrs: nounwind uwtable
define zeroext i1 @lv_font_manager_delete(ptr noundef %0) #0 {
  %2 = alloca i1, align 1
  %3 = alloca ptr, align 8
  %4 = alloca ptr, align 8
  store ptr %0, ptr %3, align 8, !tbaa !7
  br label %5

5:                                                ; preds = %1
  %6 = load ptr, ptr %3, align 8, !tbaa !7
  %7 = icmp ne ptr %6, null
  br i1 %7, label %12, label %8

8:                                                ; preds = %5
  br label %9

9:                                                ; preds = %8
  br label %10

10:                                               ; preds = %9
  br label %11

11:                                               ; preds = %10, %11
  br label %11

12:                                               ; preds = %5
  br label %13

13:                                               ; preds = %12
  %14 = load ptr, ptr %3, align 8, !tbaa !7
  %15 = call zeroext i1 @lv_font_manager_check_resource(ptr noundef %14)
  br i1 %15, label %16, label %19

16:                                               ; preds = %13
  br label %17

17:                                               ; preds = %16
  br label %18

18:                                               ; preds = %17
  store i1 false, ptr %2, align 1
  br label %58

19:                                               ; preds = %13
  %20 = load ptr, ptr %3, align 8, !tbaa !7
  %21 = getelementptr inbounds nuw %struct._lv_font_manager_t, ptr %20, i32 0, i32 3
  %22 = load ptr, ptr %21, align 8, !tbaa !9
  call void @lv_font_manager_recycle_delete(ptr noundef %22)
  call void @llvm.lifetime.start.p0(i64 8, ptr %4) #6
  %23 = load ptr, ptr %3, align 8, !tbaa !7
  %24 = getelementptr inbounds nuw %struct._lv_font_manager_t, ptr %23, i32 0, i32 2
  %25 = call ptr @lv_ll_get_head(ptr noundef %24)
  store ptr %25, ptr %4, align 8, !tbaa !7
  br label %26

26:                                               ; preds = %46, %19
  %27 = load ptr, ptr %4, align 8, !tbaa !7
  %28 = icmp ne ptr %27, null
  br i1 %28, label %29, label %51

29:                                               ; preds = %26
  %30 = load ptr, ptr %4, align 8, !tbaa !7
  %31 = getelementptr inbounds nuw %struct._lv_font_path_t, ptr %30, i32 0, i32 2
  %32 = load i8, ptr %31, align 8, !tbaa !12, !range !15, !noundef !16
  %33 = trunc i8 %32 to i1
  br i1 %33, label %41, label %34

34:                                               ; preds = %29
  %35 = load ptr, ptr %4, align 8, !tbaa !7
  %36 = getelementptr inbounds nuw %struct._lv_font_path_t, ptr %35, i32 0, i32 0
  %37 = load ptr, ptr %36, align 8, !tbaa !17
  call void @lv_free(ptr noundef %37)
  %38 = load ptr, ptr %4, align 8, !tbaa !7
  %39 = getelementptr inbounds nuw %struct._lv_font_path_t, ptr %38, i32 0, i32 1
  %40 = load ptr, ptr %39, align 8, !tbaa !18
  call void @lv_free(ptr noundef %40)
  br label %41

41:                                               ; preds = %34, %29
  %42 = load ptr, ptr %4, align 8, !tbaa !7
  %43 = getelementptr inbounds nuw %struct._lv_font_path_t, ptr %42, i32 0, i32 0
  store ptr null, ptr %43, align 8, !tbaa !17
  %44 = load ptr, ptr %4, align 8, !tbaa !7
  %45 = getelementptr inbounds nuw %struct._lv_font_path_t, ptr %44, i32 0, i32 1
  store ptr null, ptr %45, align 8, !tbaa !18
  br label %46

46:                                               ; preds = %41
  %47 = load ptr, ptr %3, align 8, !tbaa !7
  %48 = getelementptr inbounds nuw %struct._lv_font_manager_t, ptr %47, i32 0, i32 2
  %49 = load ptr, ptr %4, align 8, !tbaa !7
  %50 = call ptr @lv_ll_get_next(ptr noundef %48, ptr noundef %49)
  store ptr %50, ptr %4, align 8, !tbaa !7
  br label %26, !llvm.loop !19

51:                                               ; preds = %26
  %52 = load ptr, ptr %3, align 8, !tbaa !7
  %53 = getelementptr inbounds nuw %struct._lv_font_manager_t, ptr %52, i32 0, i32 2
  call void @lv_ll_clear(ptr noundef %53)
  %54 = load ptr, ptr %3, align 8, !tbaa !7
  call void @lv_free(ptr noundef %54)
  br label %55

55:                                               ; preds = %51
  br label %56

56:                                               ; preds = %55
  br label %57

57:                                               ; preds = %56
  store i1 true, ptr %2, align 1
  call void @llvm.lifetime.end.p0(i64 8, ptr %4) #6
  br label %58

58:                                               ; preds = %57, %18
  %59 = load i1, ptr %2, align 1
  ret i1 %59
}