; Function Attrs: nounwind uwtable
define noundef zeroext i1 @lv_font_manager_delete(ptr noundef %0) local_unnamed_addr #0 {
  %.not = icmp eq ptr %0, null
  br i1 %.not, label %.preheader, label %2

.preheader:                                       ; preds = %1, %.preheader
  br label %.preheader

2:                                                ; preds = %1
  %3 = getelementptr inbounds nuw i8, ptr %0, i64 24
  %4 = tail call i32 @lv_ll_get_len(ptr noundef nonnull %3) #5
  %.not20.i = icmp eq i32 %4, 0
  br i1 %.not20.i, label %.loopexit22.i, label %5

5:                                                ; preds = %2
  %6 = tail call ptr @lv_ll_get_head(ptr noundef nonnull %3) #5
  %.not23.i = icmp eq ptr %6, null
  br i1 %.not23.i, label %.loopexit22.i, label %.lr.ph.i

.lr.ph.i:                                         ; preds = %5, %.lr.ph.i
  %.024.i = phi ptr [ %7, %.lr.ph.i ], [ %6, %5 ]
  %7 = tail call ptr @lv_ll_get_next(ptr noundef nonnull %3, ptr noundef nonnull %.024.i) #5
  %.not.i = icmp eq ptr %7, null
  br i1 %.not.i, label %.loopexit22.i, label %.lr.ph.i, !llvm.loop !10

.loopexit22.i:                                    ; preds = %.lr.ph.i, %5, %2
  %8 = tail call i32 @lv_ll_get_len(ptr noundef nonnull %0) #5
  %.not21.i = icmp eq i32 %8, 0
  br i1 %.not21.i, label %lv_font_manager_check_resource.exit, label %9

9:                                                ; preds = %.loopexit22.i
  %10 = tail call ptr @lv_ll_get_head(ptr noundef nonnull %0) #5
  %.not1925.i = icmp eq ptr %10, null
  br i1 %.not1925.i, label %lv_font_manager_check_resource.exit, label %.lr.ph27.i

.lr.ph27.i:                                       ; preds = %9, %.lr.ph27.i
  %.01726.i = phi ptr [ %11, %.lr.ph27.i ], [ %10, %9 ]
  %11 = tail call ptr @lv_ll_get_next(ptr noundef nonnull %0, ptr noundef nonnull %.01726.i) #5
  %.not19.i = icmp eq ptr %11, null
  br i1 %.not19.i, label %lv_font_manager_check_resource.exit, label %.lr.ph27.i, !llvm.loop !12

lv_font_manager_check_resource.exit:              ; preds = %.lr.ph27.i, %.loopexit22.i, %9
  %12 = or i32 %8, %4
  %.not18 = icmp eq i32 %12, 0
  br i1 %.not18, label %13, label %27

13:                                               ; preds = %lv_font_manager_check_resource.exit
  %14 = getelementptr inbounds nuw i8, ptr %0, i64 72
  %15 = load ptr, ptr %14, align 8, !tbaa !3
  tail call void @lv_font_manager_recycle_delete(ptr noundef %15) #5
  %16 = getelementptr inbounds nuw i8, ptr %0, i64 48
  %17 = tail call ptr @lv_ll_get_head(ptr noundef nonnull %16) #5
  %.not1719 = icmp eq ptr %17, null
  br i1 %.not1719, label %._crit_edge, label %.lr.ph

.lr.ph:                                           ; preds = %13, %25
  %.020 = phi ptr [ %26, %25 ], [ %17, %13 ]
  %18 = getelementptr inbounds nuw i8, ptr %.020, i64 16
  %19 = load i8, ptr %18, align 8, !tbaa !13, !range !16, !noundef !17
  %20 = trunc nuw i8 %19 to i1
  br i1 %20, label %25, label %21

21:                                               ; preds = %.lr.ph
  %22 = load ptr, ptr %.020, align 8, !tbaa !18
  tail call void @lv_free(ptr noundef %22) #5
  %23 = getelementptr inbounds nuw i8, ptr %.020, i64 8
  %24 = load ptr, ptr %23, align 8, !tbaa !19
  tail call void @lv_free(ptr noundef %24) #5
  br label %25

25:                                               ; preds = %21, %.lr.ph
  tail call void @llvm.memset.p0.i64(ptr noundef nonnull align 8 dereferenceable(16) %.020, i8 0, i64 16, i1 false)
  %26 = tail call ptr @lv_ll_get_next(ptr noundef nonnull %16, ptr noundef nonnull %.020) #5
  %.not17 = icmp eq ptr %26, null
  br i1 %.not17, label %._crit_edge, label %.lr.ph, !llvm.loop !20

._crit_edge:                                      ; preds = %25, %13
  tail call void @lv_ll_clear(ptr noundef nonnull %16) #5
  tail call void @lv_free(ptr noundef nonnull %0) #5
  br label %27

27:                                               ; preds = %lv_font_manager_check_resource.exit, %._crit_edge
  ret i1 %.not18
}